target datalayout = "e-m:e-p270:32:32-p271:32:32-p272:64:64-i64:64-i128:128-f80:128-n8:16:32:64-S128"
target triple = "x86_64-pc-linux-gnu"

%struct.PaPulseAudio_HostApiRepresentation = type { %struct.PaUtilHostApiRepresentation, %struct.PaUtilStreamInterface, %struct.PaUtilStreamInterface, ptr, i32, [1024 x %struct.PaDeviceInfo], [1024 x ptr], %struct.pa_sample_spec, ptr, ptr, ptr, i32, ptr }
%struct.PaUtilHostApiRepresentation = type { %struct.PaUtilPrivatePaFrontHostApiInfo, %struct.PaHostApiInfo, ptr, ptr, ptr, ptr }
%struct.PaUtilPrivatePaFrontHostApiInfo = type { i64 }
%struct.PaHostApiInfo = type { i32, i32, ptr, i32, i32, i32 }
%struct.PaUtilStreamInterface = type { ptr, ptr, ptr, ptr, ptr, ptr, ptr, ptr, ptr, ptr, ptr, ptr }
%struct.PaDeviceInfo = type { i32, ptr, i32, i32, i32, double, double, double, double, double }
%struct.pa_sample_spec = type { i32, i32, i8 }

@.str.6 = private unnamed_addr constant [51 x i8] c"PaPulseAudio_CheckContextStateCb: Invalid context \00", align 1

; Function Attrs: nounwind uwtable
define void @PaPulseAudio_CheckContextStateCb(ptr noundef %0, ptr noundef %1) #0 {
  %3 = alloca ptr, align 8
  %4 = alloca ptr, align 8
  %5 = alloca ptr, align 8
  store ptr %0, ptr %3, align 8
  store ptr %1, ptr %4, align 8
  %6 = load ptr, ptr %4, align 8
  store ptr %6, ptr %5, align 8
  %7 = load ptr, ptr %3, align 8
  %8 = icmp ne ptr %7, null
  br i1 %8, label %13, label %9

9:                                                ; preds = %2
  call void @PaUtil_SetLastHostErrorInfo(i32 noundef 0, i64 noundef 0, ptr noundef @.str.6)
  %10 = load ptr, ptr %5, align 8
  %11 = getelementptr inbounds nuw %struct.PaPulseAudio_HostApiRepresentation, ptr %10, i32 0, i32 8
  %12 = load ptr, ptr %11, align 8
  call void @pa_threaded_mainloop_signal(ptr noundef %12, i32 noundef 0)
  br label %17

13:                                               ; preds = %2
  %14 = load ptr, ptr %5, align 8
  %15 = getelementptr inbounds nuw %struct.PaPulseAudio_HostApiRepresentation, ptr %14, i32 0, i32 8
  %16 = load ptr, ptr %15, align 8
  call void @pa_threaded_mainloop_signal(ptr noundef %16, i32 noundef 0)
  br label %17

17:                                               ; preds = %13, %9
  ret void
}