; Function Attrs: nounwind uwtable
define void @PaPulseAudio_CheckContextStateCb(ptr noundef readnone %0, ptr nocapture noundef readonly %1) #0 {
  %.not = icmp eq ptr %0, null
  br i1 %.not, label %3, label %4

3:                                                ; preds = %2
  tail call void @PaUtil_SetLastHostErrorInfo(i32 noundef 0, i64 noundef 0, ptr noundef nonnull @.str.6) #13
  br label %4

4:                                                ; preds = %2, %3
  %5 = getelementptr inbounds nuw i8, ptr %1, i64 82216
  %6 = load ptr, ptr %5, align 8
  tail call void @pa_threaded_mainloop_signal(ptr noundef %6, i32 noundef 0) #13
  ret void
}